; Function Attrs: nounwind uwtable
define dso_local i32 @acct_gather_energy_g_get_data(i32 noundef %0, i32 noundef %1, ptr noundef %2) local_unnamed_addr #0 {
  %4 = load i32, ptr @g_context_num, align 4
  %.not = icmp eq i32 %4, 0
  br i1 %.not, label %18, label %5

5:                                                ; preds = %3
  %6 = tail call i32 @pthread_mutex_lock(ptr noundef nonnull @g_context_lock) #8
  %.not10 = icmp eq i32 %6, 0
  br i1 %.not10, label %9, label %7

7:                                                ; preds = %5
  %8 = tail call ptr @__errno_location() #9
  store i32 %6, ptr %8, align 4
  tail call void (ptr, ...) @fatal_abort(ptr noundef nonnull @.str.1, ptr noundef nonnull @__func__.acct_gather_energy_g_get_data) #10
  unreachable

9:                                                ; preds = %5
  %10 = load ptr, ptr @ops, align 8
  %11 = sext i32 %0 to i64
  %12 = getelementptr inbounds %struct.slurm_acct_gather_energy_ops, ptr %10, i64 %11, i32 1
  %13 = load ptr, ptr %12, align 8
  %14 = tail call i32 %13(i32 noundef %1, ptr noundef %2) #8
  %15 = tail call i32 @pthread_mutex_unlock(ptr noundef nonnull @g_context_lock) #8
  %.not11 = icmp eq i32 %15, 0
  br i1 %.not11, label %18, label %16

16:                                               ; preds = %9
  %17 = tail call ptr @__errno_location() #9
  store i32 %15, ptr %17, align 4
  tail call void (ptr, ...) @fatal_abort(ptr noundef nonnull @.str.7, ptr noundef nonnull @__func__.acct_gather_energy_g_get_data) #10
  unreachable

18:                                               ; preds = %9, %3
  %.0 = phi i32 [ 0, %3 ], [ %14, %9 ]
  ret i32 %.0
}